target datalayout = "e-m:e-p270:32:32-p271:32:32-p272:64:64-i64:64-i128:128-f80:128-n8:16:32:64-S128"
target triple = "x86_64-pc-linux-gnu"

%struct.cert_list_t = type { ptr, i64 }

; Function Attrs: nounwind uwtable
define void @cert_store_free_cert_list_int(ptr noundef %0) #0 {
  %2 = alloca ptr, align 8
  %3 = alloca i64, align 8
  store ptr %0, ptr %2, align 8
  %4 = load ptr, ptr %2, align 8
  %5 = icmp ne ptr %4, null
  br i1 %5, label %6, label %41

6:                                                ; preds = %1
  %7 = load ptr, ptr %2, align 8
  %8 = getelementptr inbounds %struct.cert_list_t, ptr %7, i32 0, i32 0
  %9 = load ptr, ptr %8, align 8
  %10 = icmp ne ptr %9, null
  br i1 %10, label %11, label %41

11:                                               ; preds = %6
  store i64 0, ptr %3, align 8
  br label %12

12:                                               ; preds = %30, %11
  %13 = load i64, ptr %3, align 8
  %14 = load ptr, ptr %2, align 8
  %15 = getelementptr inbounds %struct.cert_list_t, ptr %14, i32 0, i32 1
  %16 = load i64, ptr %15, align 8
  %17 = icmp ult i64 %13, %16
  br i1 %17, label %18, label %33

18:                                               ; preds = %12
  %19 = load ptr, ptr %2, align 8
  %20 = getelementptr inbounds %struct.cert_list_t, ptr %19, i32 0, i32 0
  %21 = load ptr, ptr %20, align 8
  %22 = load i64, ptr %3, align 8
  %23 = getelementptr inbounds ptr, ptr %21, i64 %22
  %24 = load ptr, ptr %23, align 8
  call void @X509_free(ptr noundef %24)
  %25 = load ptr, ptr %2, align 8
  %26 = getelementptr inbounds %struct.cert_list_t, ptr %25, i32 0, i32 0
  %27 = load ptr, ptr %26, align 8
  %28 = load i64, ptr %3, align 8
  %29 = getelementptr inbounds ptr, ptr %27, i64 %28
  store ptr null, ptr %29, align 8
  br label %30

30:                                               ; preds = %18
  %31 = load i64, ptr %3, align 8
  %32 = add i64 %31, 1
  store i64 %32, ptr %3, align 8
  br label %12

33:                                               ; preds = %12
  %34 = load ptr, ptr %2, align 8
  %35 = getelementptr inbounds %struct.cert_list_t, ptr %34, i32 0, i32 0
  %36 = load ptr, ptr %35, align 8
  call void @free(ptr noundef %36) #10
  %37 = load ptr, ptr %2, align 8
  %38 = getelementptr inbounds %struct.cert_list_t, ptr %37, i32 0, i32 0
  store ptr null, ptr %38, align 8
  %39 = load ptr, ptr %2, align 8
  %40 = getelementptr inbounds %struct.cert_list_t, ptr %39, i32 0, i32 1
  store i64 0, ptr %40, align 8
  br label %41

41:                                               ; preds = %33, %6, %1
  ret void
}