; Function Attrs: nounwind uwtable
define void @cert_store_free_cert_list_int(ptr noundef %0) local_unnamed_addr #1 {
  %.not = icmp eq ptr %0, null
  br i1 %.not, label %15, label %2

2:                                                ; preds = %1
  %3 = load ptr, ptr %0, align 8
  %.not12 = icmp eq ptr %3, null
  br i1 %.not12, label %15, label %.preheader

.preheader:                                       ; preds = %2
  %4 = getelementptr inbounds i8, ptr %0, i64 8
  %5 = load i64, ptr %4, align 8
  %.not14 = icmp eq i64 %5, 0
  br i1 %.not14, label %._crit_edge, label %.lr.ph

.lr.ph:                                           ; preds = %.preheader, %.lr.ph
  %.013 = phi i64 [ %11, %.lr.ph ], [ 0, %.preheader ]
  %6 = load ptr, ptr %0, align 8
  %7 = getelementptr inbounds ptr, ptr %6, i64 %.013
  %8 = load ptr, ptr %7, align 8
  tail call void @X509_free(ptr noundef %8) #15
  %9 = load ptr, ptr %0, align 8
  %10 = getelementptr inbounds ptr, ptr %9, i64 %.013
  store ptr null, ptr %10, align 8
  %11 = add nuw i64 %.013, 1
  %12 = load i64, ptr %4, align 8
  %13 = icmp ult i64 %11, %12
  br i1 %13, label %.lr.ph, label %._crit_edge.loopexit

._crit_edge.loopexit:                             ; preds = %.lr.ph
  %.pre = load ptr, ptr %0, align 8
  br label %._crit_edge

._crit_edge:                                      ; preds = %._crit_edge.loopexit, %.preheader
  %14 = phi ptr [ %.pre, %._crit_edge.loopexit ], [ %3, %.preheader ]
  tail call void @free(ptr noundef %14) #15
  tail call void @llvm.memset.p0.i64(ptr noundef nonnull align 8 dereferenceable(16) %0, i8 0, i64 16, i1 false)
  br label %15

15:                                               ; preds = %._crit_edge, %2, %1
  ret void
}